target datalayout = "e-m:e-p270:32:32-p271:32:32-p272:64:64-i64:64-i128:128-f80:128-n8:16:32:64-S128"
target triple = "x86_64-pc-linux-gnu"

%struct.FFTXCodeletOptions = type { i32 }

; Function Attrs: cold nounwind optsize uwtable
define internal i32 @ff_tx_fft_init_double_c(ptr noundef %0, ptr noundef %1, i64 noundef %2, ptr noundef %3, i32 noundef %4, i32 noundef %5, ptr noundef %6) #0 {
  %8 = alloca i32, align 4
  %9 = alloca ptr, align 8
  %10 = alloca ptr, align 8
  %11 = alloca i64, align 8
  %12 = alloca ptr, align 8
  %13 = alloca i32, align 4
  %14 = alloca i32, align 4
  %15 = alloca ptr, align 8
  %16 = alloca i32, align 4
  %17 = alloca i32, align 4
  %18 = alloca %struct.FFTXCodeletOptions, align 4
  %19 = alloca i32, align 4
  store ptr %0, ptr %9, align 8, !tbaa !17
  store ptr %1, ptr %10, align 8, !tbaa !60
  store i64 %2, ptr %11, align 8, !tbaa !30
  store ptr %3, ptr %12, align 8, !tbaa !61
  store i32 %4, ptr %13, align 4, !tbaa !4
  store i32 %5, ptr %14, align 4, !tbaa !4
  store ptr %6, ptr %15, align 8, !tbaa !8
  call void @llvm.lifetime.start.p0(i64 4, ptr %16) #10
  call void @llvm.lifetime.start.p0(i64 4, ptr %17) #10
  %20 = load i64, ptr %11, align 8, !tbaa !30
  %21 = and i64 %20, 1
  %22 = icmp ne i64 %21, 0
  %23 = xor i1 %22, true
  %24 = xor i1 %23, true
  %25 = zext i1 %24 to i32
  store i32 %25, ptr %17, align 4, !tbaa !4
  call void @llvm.lifetime.start.p0(i64 4, ptr %18) #10
  %26 = getelementptr inbounds nuw %struct.FFTXCodeletOptions, ptr %18, i32 0, i32 0
  %27 = load i32, ptr %17, align 4, !tbaa !4
  %28 = icmp ne i32 %27, 0
  %29 = select i1 %28, i32 2, i32 1
  store i32 %29, ptr %26, align 4, !tbaa !70
  %30 = load i64, ptr %11, align 8, !tbaa !30
  %31 = and i64 %30, 9223372036854775807
  store i64 %31, ptr %11, align 8, !tbaa !30
  %32 = load i64, ptr %11, align 8, !tbaa !30
  %33 = or i64 %32, 1
  store i64 %33, ptr %11, align 8, !tbaa !30
  %34 = load i64, ptr %11, align 8, !tbaa !30
  %35 = or i64 %34, 2305843009213693952
  store i64 %35, ptr %11, align 8, !tbaa !30
  %36 = load ptr, ptr %9, align 8, !tbaa !17
  %37 = load i64, ptr %11, align 8, !tbaa !30
  %38 = load i32, ptr %13, align 4, !tbaa !4
  %39 = load i32, ptr %14, align 4, !tbaa !4
  %40 = load ptr, ptr %15, align 8, !tbaa !8
  %41 = call i32 @ff_tx_init_subtx(ptr noundef %36, i32 noundef 2, i64 noundef %37, ptr noundef %18, i32 noundef %38, i32 noundef %39, ptr noundef %40)
  store i32 %41, ptr %16, align 4, !tbaa !4
  %42 = icmp ne i32 %41, 0
  br i1 %42, label %43, label %45

43:                                               ; preds = %7
  %44 = load i32, ptr %16, align 4, !tbaa !4
  store i32 %44, ptr %8, align 4
  store i32 1, ptr %19, align 4
  br label %56

45:                                               ; preds = %7
  %46 = load i32, ptr %17, align 4, !tbaa !4
  %47 = icmp ne i32 %46, 0
  br i1 %47, label %48, label %55

48:                                               ; preds = %45
  %49 = load ptr, ptr %9, align 8, !tbaa !17
  %50 = load i32, ptr %13, align 4, !tbaa !4
  %51 = call i32 @ff_tx_gen_inplace_map(ptr noundef %49, i32 noundef %50)
  store i32 %51, ptr %16, align 4, !tbaa !4
  %52 = icmp ne i32 %51, 0
  br i1 %52, label %53, label %55

53:                                               ; preds = %48
  %54 = load i32, ptr %16, align 4, !tbaa !4
  store i32 %54, ptr %8, align 4
  store i32 1, ptr %19, align 4
  br label %56

55:                                               ; preds = %48, %45
  store i32 0, ptr %8, align 4
  store i32 1, ptr %19, align 4
  br label %56

56:                                               ; preds = %55, %53, %43
  call void @llvm.lifetime.end.p0(i64 4, ptr %18) #10
  call void @llvm.lifetime.end.p0(i64 4, ptr %17) #10
  call void @llvm.lifetime.end.p0(i64 4, ptr %16) #10
  %57 = load i32, ptr %8, align 4
  ret i32 %57
}